target datalayout = "e-m:e-p270:32:32-p271:32:32-p272:64:64-i64:64-i128:128-f80:128-n8:16:32:64-S128"
target triple = "x86_64-pc-linux-gnu"

@hf_nfsacl_aclcnt = internal global i32 0, align 4
@hf_nfsacl_dfaclcnt = internal global i32 0, align 4
@ett_nfsacl_aclent_entries = internal global i32 0, align 4
@.str.67 = private unnamed_addr constant [22 x i8] c"Total ACL entries: %d\00", align 1
@.str.68 = private unnamed_addr constant [30 x i8] c"Total default ACL entries: %d\00", align 1

; Function Attrs: null_pointer_is_valid sspstrong uwtable
define internal i32 @dissect_nfsacl_secattr(ptr noundef %0, i32 noundef %1, ptr noundef %2, ptr noundef %3) #0 {
  %5 = alloca ptr, align 8
  %6 = alloca i32, align 4
  %7 = alloca ptr, align 8
  %8 = alloca ptr, align 8
  %9 = alloca i32, align 4
  %10 = alloca i32, align 4
  %11 = alloca i32, align 4
  %12 = alloca ptr, align 8
  store ptr %0, ptr %5, align 8
  store i32 %1, ptr %6, align 4
  store ptr %2, ptr %7, align 8
  store ptr %3, ptr %8, align 8
  call void @llvm.lifetime.start.p0(i64 4, ptr %9) #4
  call void @llvm.lifetime.start.p0(i64 4, ptr %10) #4
  call void @llvm.lifetime.start.p0(i64 4, ptr %11) #4
  call void @llvm.lifetime.start.p0(i64 8, ptr %12) #4
  %13 = load ptr, ptr %5, align 8
  %14 = load i32, ptr %6, align 4
  %15 = load ptr, ptr %8, align 8
  %16 = call i32 @dissect_nfsacl_mask(ptr noundef %13, i32 noundef %14, ptr noundef %15)
  store i32 %16, ptr %6, align 4
  %17 = load ptr, ptr %5, align 8
  %18 = load ptr, ptr %8, align 8
  %19 = load i32, ptr @hf_nfsacl_aclcnt, align 4
  %20 = load i32, ptr %6, align 4
  %21 = call i32 @dissect_rpc_uint32(ptr noundef %17, ptr noundef %18, i32 noundef %19, i32 noundef %20)
  store i32 %21, ptr %6, align 4
  %22 = load ptr, ptr %5, align 8
  %23 = load i32, ptr %6, align 4
  %24 = call i32 @tvb_get_ntohl(ptr noundef %22, i32 noundef %23)
  store i32 %24, ptr %9, align 4
  %25 = load ptr, ptr %8, align 8
  %26 = load ptr, ptr %5, align 8
  %27 = load i32, ptr %6, align 4
  %28 = load i32, ptr @ett_nfsacl_aclent_entries, align 4
  %29 = load i32, ptr %9, align 4
  %30 = call ptr (ptr, ptr, i32, i32, i32, ptr, ptr, ...) @proto_tree_add_subtree_format(ptr noundef %25, ptr noundef %26, i32 noundef %27, i32 noundef 4, i32 noundef %28, ptr noundef null, ptr noundef @.str.67, i32 noundef %29)
  store ptr %30, ptr %12, align 8
  %31 = load i32, ptr %6, align 4
  %32 = add i32 %31, 4
  store i32 %32, ptr %6, align 4
  %33 = load i32, ptr %9, align 4
  %34 = icmp ugt i32 %33, 0
  br i1 %34, label %35, label %50

35:                                               ; preds = %4
  store i32 0, ptr %11, align 4
  br label %36

36:                                               ; preds = %46, %35
  %37 = load i32, ptr %11, align 4
  %38 = load i32, ptr %9, align 4
  %39 = icmp ult i32 %37, %38
  br i1 %39, label %40, label %49

40:                                               ; preds = %36
  %41 = load ptr, ptr %5, align 8
  %42 = load i32, ptr %6, align 4
  %43 = load ptr, ptr %7, align 8
  %44 = load ptr, ptr %12, align 8
  %45 = call i32 @dissect_nfsacl_aclent(ptr noundef %41, i32 noundef %42, ptr noundef %43, ptr noundef %44)
  store i32 %45, ptr %6, align 4
  br label %46

46:                                               ; preds = %40
  %47 = load i32, ptr %11, align 4
  %48 = add i32 %47, 1
  store i32 %48, ptr %11, align 4
  br label %36, !llvm.loop !6

49:                                               ; preds = %36
  br label %50

50:                                               ; preds = %49, %4
  %51 = load ptr, ptr %5, align 8
  %52 = load ptr, ptr %8, align 8
  %53 = load i32, ptr @hf_nfsacl_dfaclcnt, align 4
  %54 = load i32, ptr %6, align 4
  %55 = call i32 @dissect_rpc_uint32(ptr noundef %51, ptr noundef %52, i32 noundef %53, i32 noundef %54)
  store i32 %55, ptr %6, align 4
  %56 = load ptr, ptr %5, align 8
  %57 = load i32, ptr %6, align 4
  %58 = call i32 @tvb_get_ntohl(ptr noundef %56, i32 noundef %57)
  store i32 %58, ptr %10, align 4
  %59 = load ptr, ptr %8, align 8
  %60 = load ptr, ptr %5, align 8
  %61 = load i32, ptr %6, align 4
  %62 = load i32, ptr @ett_nfsacl_aclent_entries, align 4
  %63 = load i32, ptr %10, align 4
  %64 = call ptr (ptr, ptr, i32, i32, i32, ptr, ptr, ...) @proto_tree_add_subtree_format(ptr noundef %59, ptr noundef %60, i32 noundef %61, i32 noundef 4, i32 noundef %62, ptr noundef null, ptr noundef @.str.68, i32 noundef %63)
  store ptr %64, ptr %12, align 8
  %65 = load i32, ptr %6, align 4
  %66 = add i32 %65, 4
  store i32 %66, ptr %6, align 4
  %67 = load i32, ptr %10, align 4
  %68 = icmp ugt i32 %67, 0
  br i1 %68, label %69, label %84

69:                                               ; preds = %50
  store i32 0, ptr %11, align 4
  br label %70

70:                                               ; preds = %80, %69
  %71 = load i32, ptr %11, align 4
  %72 = load i32, ptr %10, align 4
  %73 = icmp ult i32 %71, %72
  br i1 %73, label %74, label %83

74:                                               ; preds = %70
  %75 = load ptr, ptr %5, align 8
  %76 = load i32, ptr %6, align 4
  %77 = load ptr, ptr %7, align 8
  %78 = load ptr, ptr %12, align 8
  %79 = call i32 @dissect_nfsacl_aclent(ptr noundef %75, i32 noundef %76, ptr noundef %77, ptr noundef %78)
  store i32 %79, ptr %6, align 4
  br label %80

80:                                               ; preds = %74
  %81 = load i32, ptr %11, align 4
  %82 = add i32 %81, 1
  store i32 %82, ptr %11, align 4
  br label %70, !llvm.loop !8

83:                                               ; preds = %70
  br label %84

84:                                               ; preds = %83, %50
  %85 = load i32, ptr %6, align 4
  call void @llvm.lifetime.end.p0(i64 8, ptr %12) #4
  call void @llvm.lifetime.end.p0(i64 4, ptr %11) #4
  call void @llvm.lifetime.end.p0(i64 4, ptr %10) #4
  call void @llvm.lifetime.end.p0(i64 4, ptr %9) #4
  ret i32 %85
}